(dp0
S'y'
p1
(lp2
(lp3
F0.13700959994100001
aF-0.92953282851399999
aF0.73636363636400004
aF-2.5711780913400002
aF-108.45319973300001
aF-40.748129126000002
aa(lp4
F0.084289053770799996
aF-0.92479132655499996
aF0.20453894406600001
aF-0.28540299403899999
aF0.15508557528200001
aF0.34978447009399999
aa(lp5
F0.080794977350499994
aF-0.92691522958100003
aF0.231406172608
aF-2.5210897751500001
aF-2.4579007026399999
aF-2.8897109493499999
aa(lp6
F0.083476365582900003
aF-0.92630322025800005
aF0.22732295352099999
aF-0.30811501481499998
aF0.15115795421600001
aF0.34911142262200001
aa(lp7
F0.084118423089699995
aF-0.92087685743400005
aF0.15919509182
aF-0.240085597718
aF0.14482839401299999
aF0.36778373465999997
aa(lp8
F0.082435782079100003
aF-0.92439382468200004
aF0.16025718960499999
aF-0.24112859127399999
aF0.15832050364700001
aF0.35486505819800002
aa(lp9
F0.079622144214000004
aF-0.92254946850099995
aF0.16004311276200001
aF-0.240753685957
aF0.15504096872299999
aF0.35221447780699999
aa(lp10
F0.0782811384601
aF-0.92088905432699997
aF0.159058118611
aF-0.23986705011600001
aF0.160634184974
aF0.35566407410799999
aa(lp11
F0.080852116088799997
aF-0.92408872835300004
aF0.15989960841299999
aF-0.24060695877999999
aF0.158271864145
aF0.36874646754899998
aa(lp12
F0.081859216159300002
aF-0.92106182853100005
aF0.158951198525
aF-0.239728604416
aF0.15899062217400001
aF0.369895099763
aa(lp13
F0.081061339955499995
aF-0.92204433378499995
aF0.15930950288699999
aF-0.24002372144100001
aF0.160986428046
aF0.371686015348
aa(lp14
F0.083309784454999994
aF-0.92153359903300003
aF0.15917439705799999
aF-0.240232099339
aF0.162018593126
aF0.36310600104000001
aa(lp15
F0.081982194001900002
aF-0.92116089521
aF0.158446770598
aF-0.239423026058
aF0.16069105430300001
aF0.36080005769899998
aa(lp16
F0.082774073448800001
aF-0.92432625425500003
aF0.19693543265800001
aF-0.27759413902300001
aF0.16288429770900001
aF0.355089379383
aa(lp17
F0.083611637691399995
aF-0.92137421463299995
aF0.158055979259
aF-0.23903522156900001
aF0.15642312241299999
aF0.35866183644600003
aa(lp18
F0.081565972120499999
aF-0.92379711933300002
aF0.15744890076000001
aF-0.238375373941
aF0.16448846812500001
aF0.35565130872099998
aa(lp19
F0.084315561778899997
aF-0.92831292484500005
aF0.156892750917
aF-0.23833384607800001
aF0.168518027909
aF0.35303836806599997
aa(lp20
F0.081805810659299996
aF-0.92312064349699996
aF0.156111685739
aF-0.23794502899299999
aF0.16511734991800001
aF0.35537915754499999
aa(lp21
F0.17352026817800001
aF-0.93255836157899996
aF0.78150743882899998
aF-3.03495145631
aF-89.2091332368
aF-38.956744501899998
aa(lp22
F0.080663628120899999
aF-0.921401404132
aF0.157430625799
aF-0.23930681796
aF0.153055489825
aF0.34933055465000001
aa(lp23
F0.0839219878241
aF-0.92150955322999994
aF0.15755270424000001
aF-0.239509948715
aF0.15558932130200001
aF0.345055657844
aa(lp24
F0.0832793634378
aF-0.92751383043699998
aF0.24428799846900001
aF-0.32587317743700001
aF0.12974513446700001
aF0.31869264651599999
aa(lp25
F0.079815690768300002
aF-0.92288779351899997
aF0.156577602782
aF-0.23815533281599999
aF0.15035618153399999
aF0.35299502909899999
aa(lp26
F0.081842902561300002
aF-0.92476496924700002
aF0.15699018991899999
aF-0.24011212750200001
aF0.162134742537
aF0.34323951360100002
aa(lp27
F0.083138025752899997
aF-0.927914612729
aF0.24932864629099999
aF-0.331196676553
aF0.159551819373
aF0.065986619072299996
aa(lp28
F0.13824474994399999
aF-0.930487749044
aF0.860389820631
aF-2.9023444385700001
aF-95.798342233900001
aF-38.261724430900003
aa(lp29
F0.0810561765322
aF-0.92395800900699998
aF0.15409942481399999
aF-0.23660337595700001
aF0.15272953094799999
aF0.34134347804800003
aa(lp30
F0.083335299218899997
aF-0.92265896160399996
aF0.15528112318500001
aF-0.23768133368700001
aF0.157633378272
aF0.33377775486799999
aa(lp31
F0.080025450974900006
aF-0.92396789345700003
aF0.15436014709099999
aF-0.23680706737099999
aF0.16028293394000001
aF0.34216821585500001
aa(lp32
F0.13366047397200001
aF-0.93247047733900001
aF0.63181678134899999
aF-2.08974615231
aF-91.275054728499995
aF-39.354930525100002
aa(lp33
F0.17386298296200001
aF-0.93310624257999997
aF0.82286277408200004
aF-3.1970443349800002
aF-91.182374545499997
aF-38.427125117300001
aa(lp34
F0.082807851348400005
aF-0.92338863887800005
aF0.15412596208500001
aF-0.23633974345200001
aF0.15477247221900001
aF0.33723910673700003
aa(lp35
F0.079502053993999997
aF-0.924834476076
aF0.15385089083299999
aF-0.23612759075500001
aF0.155166864164
aF0.34507508255399999
aa(lp36
F0.082698127365799998
aF-0.92199516968799999
aF0.15412291132600001
aF-0.236336455975
aF0.161451810912
aF0.34244392638799998
aa(lp37
F0.081320813808700002
aF-0.92397456240200004
aF0.15415352162599999
aF-0.23612893533000001
aF0.147859706407
aF0.33157107627100002
aa(lp38
F0.082585396374100006
aF-0.93017002682100003
aF0.15441483226899999
aF-0.23638752641800001
aF0.1587862102
aF0.33133034993499999
aa(lp39
F0.0847909910741
aF-0.92152660317699997
aF0.15467971707600001
aF-0.23701534151
aF0.156650976469
aF0.33203554717299999
aa(lp40
F0.081253841098000004
aF-0.92466356575899999
aF0.15403707250599999
aF-0.236118658152
aF0.15218901121799999
aF0.33425405201399999
aa(lp41
F0.079635951767199994
aF-0.92082793872799995
aF0.15468301160299999
aF-0.23685517706600001
aF0.14266676698700001
aF0.339984746906
aa(lp42
F0.081147945251399997
aF-0.92296276641700004
aF0.15580325969100001
aF-0.23778424615300001
aF0.148450797266
aF0.33366359818699998
aa(lp43
F0.080788107338000001
aF-0.925120525832
aF0.15474166476599999
aF-0.236555102435
aF0.15624681153600001
aF0.32959366179400001
aa(lp44
F0.077912709844800004
aF-0.92981959849499995
aF0.16097929294900001
aF-0.24386375909300001
aF0.16286412380000001
aF-11.284803093000001
aa(lp45
F0.079951195909800002
aF-0.92624825175500003
aF0.15418893232700001
aF-0.23624496055300001
aF0.14467225734299999
aF0.33759744829799998
aa(lp46
F0.083661170031000001
aF-0.92661430912099996
aF0.24575528366999999
aF-0.32810112174700001
aF0.046947731932199997
aF0.206325477836
aa(lp47
F0.0808961898643
aF-0.92674004763700002
aF0.15436271425799999
aF-0.23658307417999999
aF0.14803648440100001
aF0.32785612427299998
aa(lp48
F0.080968540368200004
aF-0.92041674952100005
aF0.15497602496099999
aF-0.23701976157599999
aF0.14685059526399999
aF0.334865684133
aa(lp49
F0.081719975154099997
aF-0.92215548018500004
aF0.155272197069
aF-0.23715549074200001
aF0.14139290844499999
aF0.32120825195699998
aa(lp50
F0.080791672968300005
aF-0.92254580855099999
aF0.15563471265699999
aF-0.23743518746100001
aF0.141586165317
aF0.33078790418100001
aa(lp51
F0.081119363423099999
aF-0.921060171067
aF0.15542910564000001
aF-0.23719652547600001
aF0.14339714916999999
aF0.32935893641000002
aa(lp52
F0.081433997420199994
aF-0.92388883329899996
aF0.154664617285
aF-0.23636192638199999
aF0.14867011625000001
aF0.332566964347
aa(lp53
F0.082354519557800002
aF-0.92351911474399995
aF0.15438142749200001
aF-0.23578521203399999
aF0.148382814324
aF0.325874685572
aa(lp54
F0.084548922518999994
aF-0.92734081876700003
aF0.15338970410300001
aF-0.35029031493099999
aF0.146430807577
aF0.323365199898
aa(lp55
F0.080024295581099997
aF-0.92404710159799996
aF0.15360294457099999
aF-0.23538714885199999
aF0.147657670297
aF0.330592501747
aa(lp56
F0.078703391910500006
aF-0.93048411335000003
aF0.15345825507800001
aF-0.23525859481200001
aF0.147086600516
aF0.32947461458600003
aa(lp57
F0.13376866517399999
aF-0.92925298447299998
aF0.70790794255099998
aF-2.3366843191800002
aF-76.715387753399995
aF-39.554681254199998
aa(lp58
F0.082343015372300002
aF-0.92694939927999997
aF0.22668422880899999
aF-0.30847337546300002
aF0.12281590131300001
aF0.292185296707
aa(lp59
F0.082364206739399995
aF-0.92364595890099999
aF0.153617284332
aF-0.23564527048
aF0.14222809583000001
aF0.32258744845499998
aa(lp60
F0.079958637803399998
aF-0.92719260589899999
aF0.23138779623700001
aF-0.31336332677200002
aF0.055045133086800001
aF0.198944465195
aa(lp61
F0.082156679644999994
aF-0.92281383995800004
aF0.15252463183199999
aF-0.23431987291699999
aF0.149273361612
aF0.33247934103100002
aa(lp62
F0.10219953325300001
aF-0.92472595761900001
aF0.72566660147299999
aF-2.4916477138999999
aF0.067736754169000005
aF0.23197213727900001
aa(lp63
F0.080387750699999996
aF-0.92616079146999997
aF0.152293256716
aF-0.234208604495
aF0.13995603442099999
aF-2.2470805845899999
aa(lp64
F0.082595752368699996
aF-0.92652780061700002
aF0.18743017347900001
aF-0.26903982646500002
aF0.148433733718
aF0.31587182630400001
aa(lp65
F0.080995613891400003
aF-0.92183901103200006
aF0.152906010324
aF-0.234723862994
aF0.15168569925399999
aF0.31760015069000003
aa(lp66
F0.079869139129899999
aF-0.92550779931899996
aF0.152898328167
aF-0.23466351310299999
aF0.145597605229
aF0.30447143470299998
aa(lp67
F0.080522107826699996
aF-0.92313815638100005
aF0.15197309641199999
aF-0.23382880139000001
aF0.149801611014
aF0.31449017107499999
aa(lp68
F0.079157617686599999
aF-0.92945530613399996
aF0.23741495571900001
aF-0.31811445895399998
aF0.14645625698299999
aF0.32095657133900002
aa(lp69
F0.081741048079200004
aF-0.921168711009
aF0.151104371697
aF-0.232119775527
aF0.14308366933800001
aF0.32029799852899998
aa(lp70
F0.081026187619800003
aF-0.93040794472199995
aF0.197972777461
aF-0.27894379063899999
aF0.14697265997
aF0.31384025504399998
aa(lp71
F0.080630607617299996
aF-0.92933861785000005
aF0.18956205184300001
aF-0.27049638721899999
aF0.139821123376
aF0.32688766006999997
aa(lp72
F0.080004072352399994
aF-0.92830758947900005
aF0.28974025864399999
aF-0.371336831767
aF0.038150213546800003
aF0.174387279724
aa(lp73
F0.080351717480599993
aF-0.92406185837499999
aF0.15118380514900001
aF-0.23228751035299999
aF0.141767641556
aF0.31160936490699997
aa(lp74
F0.079410132708
aF-0.92342120468900002
aF0.200889350937
aF-0.28155659469599997
aF0.13712969516699999
aF0.31208622849399997
aasS'X'
p75
(lp76
(lp77
F350.56111053500001
aF292.41320605599998
aa(lp78
F351.308581033
aF294.59413246399998
aa(lp79
F351.171462201
aF293.53892353499998
aa(lp80
F350.51823315899998
aF292.11893005899998
aa(lp81
F350.17732238799999
aF292.60456731199997
aa(lp82
F349.84452299399999
aF295.2219609
aa(lp83
F349.279667717
aF294.14903886399998
aa(lp84
F351.67007777999999
aF294.08921741099999
aa(lp85
F348.328273341
aF286.11478695199997
aa(lp86
F338.62218218700002
aF279.03534781799999
aa(lp87
F338.13438571900002
aF279.54088020699999
aa(lp88
F335.62885804199999
aF285.83300179299999
aa(lp89
F336.76659261100002
aF290.02415960799999
aa(lp90
F337.01388052700003
aF293.12852883099998
aa(lp91
F336.03089728499998
aF295.18703486200002
aa(lp92
F335.52641176100002
aF298.64999631500001
aa(lp93
F334.40835048700001
aF296.46957691400002
aa(lp94
F333.457056679
aF292.87405662499998
aa(lp95
F333.99338383200001
aF295.92165642800001
aa(lp96
F336.76589431600001
aF298.80721825699999
aa(lp97
F337.168151916
aF303.14488384600003
aa(lp98
F336.20309173300001
aF305.33032221899998
aa(lp99
F337.10596417099998
aF305.926992611
aa(lp100
F338.690799465
aF309.28990995100003
aa(lp101
F336.34843670100003
aF305.232458662
aa(lp102
F335.77765433000002
aF302.15637910100003
aa(lp103
F336.595623112
aF304.60712922900001
aa(lp104
F337.88958757500001
aF308.39354419900002
aa(lp105
F338.66571515300001
aF310.37928102299998
aa(lp106
F338.00453692899998
aF312.47836514199997
aa(lp107
F339.52004029300002
aF314.35449203899998
aa(lp108
F338.13168729400002
aF315.94432489500002
aa(lp109
F337.46355619399998
aF312.45774519100001
aa(lp110
F337.25986829700003
aF310.19470145000003
aa(lp111
F337.96073706700003
aF310.29613706700002
aa(lp112
F339.14992544699999
aF315.215681308
aa(lp113
F339.52890663800002
aF316.03030681899997
aa(lp114
F339.32676439199997
aF318.96546577700002
aa(lp115
F341.29862731899999
aF320.13235150499997
aa(lp116
F340.66077084099999
aF323.38876953099998
aa(lp117
F338.328057075
aF320.30212258699999
aa(lp118
F337.95643422099999
aF316.25112204499999
aa(lp119
F337.68747734599998
aF316.599513823
aa(lp120
F340.71599663799998
aF319.52466444599997
aa(lp121
F340.47237303100002
aF321.65661086300003
aa(lp122
F341.457738796
aF323.30345225600001
aa(lp123
F340.44956835400001
aF325.05203424299998
aa(lp124
F342.287298819
aF326.00377206000002
aa(lp125
F340.92791491899999
aF324.991030292
aa(lp126
F338.902127345
aF319.72844175400002
aa(lp127
F339.82250379999999
aF319.67753083600002
aa(lp128
F340.59454248700001
aF322.90718102199997
aa(lp129
F341.74965697300001
aF325.95201480200001
aa(lp130
F341.61306269900001
aF326.27452229900001
aa(lp131
F340.05789229999999
aF326.70984847
aa(lp132
F341.91271507499999
aF329.98136663000002
aa(lp133
F343.33146890400002
aF331.04423782100002
aa(lp134
F339.72774361299997
aF319.766341082
aa(lp135
F340.029529502
aF321.41537190999998
aa(lp136
F340.31498805000001
aF323.91413201300003
aa(lp137
F340.59319326100001
aF326.048163655
aa(lp138
F341.92122806899999
aF328.20678643399998
aa(lp139
F341.722551082
aF328.65463539400002
aa(lp140
F341.097513343
aF331.26168317000003
aa(lp141
F341.76963462200001
aF328.97743581200001
aa(lp142
F337.70457196500001
aF324.08838775599997
aa(lp143
F340.321151638
aF325.19407406300002
aa(lp144
F341.74749619699998
aF328.54129004700002
aa(lp145
F341.432824993
aF329.68880107299998
aa(lp146
F342.48180036999997
aF330.86885474100001
aa(lp147
F343.36122916800002
aF332.94283738199999
aa(lp148
F342.84178049500002
aF333.75932989900002
aasS'w'
p149
(lp150
(lp151
F-108.45319973300001
aF-40.748129126000002
aa(lp152
F0.15508557528200001
aF0.34978447009399999
aa(lp153
F-2.4579007026399999
aF-2.8897109493499999
aa(lp154
F0.15115795421600001
aF0.34911142262200001
aa(lp155
F0.14482839401299999
aF0.36778373465999997
aa(lp156
F0.15832050364700001
aF0.35486505819800002
aa(lp157
F0.15504096872299999
aF0.35221447780699999
aa(lp158
F0.160634184974
aF0.35566407410799999
aa(lp159
F0.158271864145
aF0.36874646754899998
aa(lp160
F0.15899062217400001
aF0.369895099763
aa(lp161
F0.160986428046
aF0.371686015348
aa(lp162
F0.162018593126
aF0.36310600104000001
aa(lp163
F0.16069105430300001
aF0.36080005769899998
aa(lp164
F0.16288429770900001
aF0.355089379383
aa(lp165
F0.15642312241299999
aF0.35866183644600003
aa(lp166
F0.16448846812500001
aF0.35565130872099998
aa(lp167
F0.168518027909
aF0.35303836806599997
aa(lp168
F0.16511734991800001
aF0.35537915754499999
aa(lp169
F-89.2091332368
aF-38.956744501899998
aa(lp170
F0.153055489825
aF0.34933055465000001
aa(lp171
F0.15558932130200001
aF0.345055657844
aa(lp172
F0.12974513446700001
aF0.31869264651599999
aa(lp173
F0.15035618153399999
aF0.35299502909899999
aa(lp174
F0.162134742537
aF0.34323951360100002
aa(lp175
F0.159551819373
aF0.065986619072299996
aa(lp176
F-95.798342233900001
aF-38.261724430900003
aa(lp177
F0.15272953094799999
aF0.34134347804800003
aa(lp178
F0.157633378272
aF0.33377775486799999
aa(lp179
F0.16028293394000001
aF0.34216821585500001
aa(lp180
F-91.275054728499995
aF-39.354930525100002
aa(lp181
F-91.182374545499997
aF-38.427125117300001
aa(lp182
F0.15477247221900001
aF0.33723910673700003
aa(lp183
F0.155166864164
aF0.34507508255399999
aa(lp184
F0.161451810912
aF0.34244392638799998
aa(lp185
F0.147859706407
aF0.33157107627100002
aa(lp186
F0.1587862102
aF0.33133034993499999
aa(lp187
F0.156650976469
aF0.33203554717299999
aa(lp188
F0.15218901121799999
aF0.33425405201399999
aa(lp189
F0.14266676698700001
aF0.339984746906
aa(lp190
F0.148450797266
aF0.33366359818699998
aa(lp191
F0.15624681153600001
aF0.32959366179400001
aa(lp192
F0.16286412380000001
aF-11.284803093000001
aa(lp193
F0.14467225734299999
aF0.33759744829799998
aa(lp194
F0.046947731932199997
aF0.206325477836
aa(lp195
F0.14803648440100001
aF0.32785612427299998
aa(lp196
F0.14685059526399999
aF0.334865684133
aa(lp197
F0.14139290844499999
aF0.32120825195699998
aa(lp198
F0.141586165317
aF0.33078790418100001
aa(lp199
F0.14339714916999999
aF0.32935893641000002
aa(lp200
F0.14867011625000001
aF0.332566964347
aa(lp201
F0.148382814324
aF0.325874685572
aa(lp202
F0.146430807577
aF0.323365199898
aa(lp203
F0.147657670297
aF0.330592501747
aa(lp204
F0.147086600516
aF0.32947461458600003
aa(lp205
F-76.715387753399995
aF-39.554681254199998
aa(lp206
F0.12281590131300001
aF0.292185296707
aa(lp207
F0.14222809583000001
aF0.32258744845499998
aa(lp208
F0.055045133086800001
aF0.198944465195
aa(lp209
F0.149273361612
aF0.33247934103100002
aa(lp210
F0.067736754169000005
aF0.23197213727900001
aa(lp211
F0.13995603442099999
aF-2.2470805845899999
aa(lp212
F0.148433733718
aF0.31587182630400001
aa(lp213
F0.15168569925399999
aF0.31760015069000003
aa(lp214
F0.145597605229
aF0.30447143470299998
aa(lp215
F0.149801611014
aF0.31449017107499999
aa(lp216
F0.14645625698299999
aF0.32095657133900002
aa(lp217
F0.14308366933800001
aF0.32029799852899998
aa(lp218
F0.14697265997
aF0.31384025504399998
aa(lp219
F0.139821123376
aF0.32688766006999997
aa(lp220
F0.038150213546800003
aF0.174387279724
aa(lp221
F0.141767641556
aF0.31160936490699997
aa(lp222
F0.13712969516699999
aF0.31208622849399997
aas.